target datalayout = "e-m:e-p270:32:32-p271:32:32-p272:64:64-i64:64-i128:128-f80:128-n8:16:32:64-S128"
target triple = "x86_64-pc-linux-gnu"

; Function Attrs: mustprogress nounwind uwtable
define void @_Z34ImFontAtlasBuildMultiplyRectAlpha8PKhPhiiiii(ptr noundef %0, ptr noundef %1, i32 noundef %2, i32 noundef %3, i32 noundef %4, i32 noundef %5, i32 noundef %6) #3 {
  %8 = alloca ptr, align 8
  %9 = alloca ptr, align 8
  %10 = alloca i32, align 4
  %11 = alloca i32, align 4
  %12 = alloca i32, align 4
  %13 = alloca i32, align 4
  %14 = alloca i32, align 4
  %15 = alloca ptr, align 8
  %16 = alloca i32, align 4
  %17 = alloca i32, align 4
  %18 = alloca i32, align 4
  store ptr %0, ptr %8, align 8, !tbaa !186
  store ptr %1, ptr %9, align 8, !tbaa !186
  store i32 %2, ptr %10, align 4, !tbaa !27
  store i32 %3, ptr %11, align 4, !tbaa !27
  store i32 %4, ptr %12, align 4, !tbaa !27
  store i32 %5, ptr %13, align 4, !tbaa !27
  store i32 %6, ptr %14, align 4, !tbaa !27
  call void @llvm.lifetime.start.p0(i64 8, ptr %15) #17
  %19 = load ptr, ptr %9, align 8, !tbaa !186
  %20 = load i32, ptr %10, align 4, !tbaa !27
  %21 = sext i32 %20 to i64
  %22 = getelementptr inbounds i8, ptr %19, i64 %21
  %23 = load i32, ptr %11, align 4, !tbaa !27
  %24 = load i32, ptr %14, align 4, !tbaa !27
  %25 = mul nsw i32 %23, %24
  %26 = sext i32 %25 to i64
  %27 = getelementptr inbounds i8, ptr %22, i64 %26
  store ptr %27, ptr %15, align 8, !tbaa !186
  call void @llvm.lifetime.start.p0(i64 4, ptr %16) #17
  %28 = load i32, ptr %13, align 4, !tbaa !27
  store i32 %28, ptr %16, align 4, !tbaa !27
  br label %29

29:                                               ; preds = %53, %7
  %30 = load i32, ptr %16, align 4, !tbaa !27
  %31 = icmp sgt i32 %30, 0
  br i1 %31, label %33, label %32

32:                                               ; preds = %29
  store i32 2, ptr %17, align 4
  call void @llvm.lifetime.end.p0(i64 4, ptr %16) #17
  br label %62

33:                                               ; preds = %29
  call void @llvm.lifetime.start.p0(i64 4, ptr %18) #17
  %34 = load i32, ptr %12, align 4, !tbaa !27
  store i32 %34, ptr %18, align 4, !tbaa !27
  br label %35

35:                                               ; preds = %47, %33
  %36 = load i32, ptr %18, align 4, !tbaa !27
  %37 = icmp sgt i32 %36, 0
  br i1 %37, label %39, label %38

38:                                               ; preds = %35
  store i32 5, ptr %17, align 4
  call void @llvm.lifetime.end.p0(i64 4, ptr %18) #17
  br label %52

39:                                               ; preds = %35
  %40 = load ptr, ptr %8, align 8, !tbaa !186
  %41 = load ptr, ptr %15, align 8, !tbaa !186
  %42 = load i8, ptr %41, align 1, !tbaa !41
  %43 = zext i8 %42 to i64
  %44 = getelementptr inbounds nuw i8, ptr %40, i64 %43
  %45 = load i8, ptr %44, align 1, !tbaa !41
  %46 = load ptr, ptr %15, align 8, !tbaa !186
  store i8 %45, ptr %46, align 1, !tbaa !41
  br label %47

47:                                               ; preds = %39
  %48 = load i32, ptr %18, align 4, !tbaa !27
  %49 = add nsw i32 %48, -1
  store i32 %49, ptr %18, align 4, !tbaa !27
  %50 = load ptr, ptr %15, align 8, !tbaa !186
  %51 = getelementptr inbounds nuw i8, ptr %50, i32 1
  store ptr %51, ptr %15, align 8, !tbaa !186
  br label %35, !llvm.loop !368

52:                                               ; preds = %38
  br label %53

53:                                               ; preds = %52
  %54 = load i32, ptr %16, align 4, !tbaa !27
  %55 = add nsw i32 %54, -1
  store i32 %55, ptr %16, align 4, !tbaa !27
  %56 = load i32, ptr %14, align 4, !tbaa !27
  %57 = load i32, ptr %12, align 4, !tbaa !27
  %58 = sub nsw i32 %56, %57
  %59 = load ptr, ptr %15, align 8, !tbaa !186
  %60 = sext i32 %58 to i64
  %61 = getelementptr inbounds i8, ptr %59, i64 %60
  store ptr %61, ptr %15, align 8, !tbaa !186
  br label %29, !llvm.loop !369

62:                                               ; preds = %32
  call void @llvm.lifetime.end.p0(i64 8, ptr %15) #17
  ret void
}