; Function Attrs: mustprogress nofree norecurse nosync nounwind memory(argmem: readwrite) uwtable
define void @_Z34ImFontAtlasBuildMultiplyRectAlpha8PKhPhiiiii(ptr noundef readonly captures(none) %0, ptr noundef captures(none) %1, i32 noundef %2, i32 noundef %3, i32 noundef %4, i32 noundef %5, i32 noundef %6) local_unnamed_addr #31 {
  %8 = icmp sgt i32 %5, 0
  br i1 %8, label %.preheader.lr.ph, label %._crit_edge22

.preheader.lr.ph:                                 ; preds = %7
  %9 = icmp sgt i32 %4, 0
  %10 = sub nsw i32 %6, %4
  %11 = sext i32 %10 to i64
  br i1 %9, label %.preheader.us.preheader, label %._crit_edge22

.preheader.us.preheader:                          ; preds = %.preheader.lr.ph
  %12 = sext i32 %2 to i64
  %13 = getelementptr inbounds i8, ptr %1, i64 %12
  %14 = mul nsw i32 %6, %3
  %15 = sext i32 %14 to i64
  %16 = getelementptr inbounds i8, ptr %13, i64 %15
  br label %.preheader.us

.preheader.us:                                    ; preds = %.preheader.us.preheader, %._crit_edge.us
  %.01621.us = phi i32 [ %25, %._crit_edge.us ], [ %5, %.preheader.us.preheader ]
  %.01720.us = phi ptr [ %26, %._crit_edge.us ], [ %16, %.preheader.us.preheader ]
  br label %17

17:                                               ; preds = %.preheader.us, %17
  %.019.us = phi i32 [ %4, %.preheader.us ], [ %22, %17 ]
  %.118.us = phi ptr [ %.01720.us, %.preheader.us ], [ %23, %17 ]
  %18 = load i8, ptr %.118.us, align 1, !tbaa !23
  %19 = zext i8 %18 to i64
  %20 = getelementptr inbounds nuw i8, ptr %0, i64 %19
  %21 = load i8, ptr %20, align 1, !tbaa !23
  store i8 %21, ptr %.118.us, align 1, !tbaa !23
  %22 = add nsw i32 %.019.us, -1
  %23 = getelementptr inbounds nuw i8, ptr %.118.us, i64 1
  %24 = icmp sgt i32 %.019.us, 1
  br i1 %24, label %17, label %._crit_edge.us, !llvm.loop !308

._crit_edge.us:                                   ; preds = %17
  %25 = add nsw i32 %.01621.us, -1
  %26 = getelementptr inbounds i8, ptr %23, i64 %11
  %27 = icmp sgt i32 %.01621.us, 1
  br i1 %27, label %.preheader.us, label %._crit_edge22, !llvm.loop !309

._crit_edge22:                                    ; preds = %._crit_edge.us, %.preheader.lr.ph, %7
  ret void
}